; Function Attrs: nounwind uwtable
define ptr @Hop_CreateExor(ptr noundef %0, i32 noundef %1) local_unnamed_addr #0 {
  %3 = getelementptr i8, ptr %0, i64 24
  %.val = load ptr, ptr %3, align 8, !tbaa !20
  %4 = ptrtoint ptr %.val to i64
  %5 = xor i64 %4, 1
  %6 = inttoptr i64 %5 to ptr
  %7 = icmp sgt i32 %1, 0
  br i1 %7, label %.lr.ph, label %._crit_edge

.lr.ph:                                           ; preds = %2
  %8 = getelementptr i8, ptr %0, i64 80
  %wide.trip.count = zext nneg i32 %1 to i64
  br label %9

9:                                                ; preds = %.lr.ph, %Hop_IthVar.exit
  %indvars.iv = phi i64 [ 0, %.lr.ph ], [ %indvars.iv.next, %Hop_IthVar.exit ]
  %.089 = phi ptr [ %6, %.lr.ph ], [ %17, %Hop_IthVar.exit ]
  %.val.i = load i32, ptr %8, align 8, !tbaa !3
  %10 = sext i32 %.val.i to i64
  %.not8.i = icmp slt i64 %indvars.iv, %10
  br i1 %.not8.i, label %Hop_IthVar.exit, label %.lr.ph.i

.lr.ph.i:                                         ; preds = %9, %.lr.ph.i
  %.09.i = phi i32 [ %12, %.lr.ph.i ], [ %.val.i, %9 ]
  %11 = tail call ptr @Hop_ObjCreatePi(ptr noundef %0) #2
  %12 = add i32 %.09.i, 1
  %13 = zext i32 %.09.i to i64
  %exitcond.not.i = icmp eq i64 %indvars.iv, %13
  br i1 %exitcond.not.i, label %Hop_IthVar.exit, label %.lr.ph.i, !llvm.loop !7

Hop_IthVar.exit:                                  ; preds = %.lr.ph.i, %9
  %.val7.i = load ptr, ptr %0, align 8, !tbaa !9
  %14 = getelementptr i8, ptr %.val7.i, i64 8
  %.val7.val.i = load ptr, ptr %14, align 8, !tbaa !17
  %15 = getelementptr inbounds nuw ptr, ptr %.val7.val.i, i64 %indvars.iv
  %16 = load ptr, ptr %15, align 8, !tbaa !19
  %17 = tail call ptr @Hop_Exor(ptr noundef nonnull %0, ptr noundef %.089, ptr noundef %16)
  %indvars.iv.next = add nuw nsw i64 %indvars.iv, 1
  %exitcond.not = icmp eq i64 %indvars.iv.next, %wide.trip.count
  br i1 %exitcond.not, label %._crit_edge, label %9, !llvm.loop !29

._crit_edge:                                      ; preds = %Hop_IthVar.exit, %2
  %.08.lcssa = phi ptr [ %6, %2 ], [ %17, %Hop_IthVar.exit ]
  ret ptr %.08.lcssa
}